; Function Attrs: mustprogress nofree norecurse nosync nounwind willreturn memory(argmem: readwrite) uwtable
define dso_local void @_ZN3ozz9animation8SkeletonC2EOS1_(ptr nocapture noundef nonnull align 8 dereferenceable(48) %0, ptr nocapture noundef nonnull align 8 dereferenceable(48) %1) unnamed_addr #4 align 2 {
  %3 = getelementptr inbounds i8, ptr %0, i64 16
  %4 = getelementptr inbounds i8, ptr %0, i64 32
  %.sroa.2.0..sroa_idx.i.i = getelementptr inbounds i8, ptr %0, i64 8
  tail call void @llvm.memset.p0.i64(ptr noundef nonnull align 8 dereferenceable(48) %0, i8 0, i64 48, i1 false)
  %5 = load ptr, ptr %1, align 8
  store ptr %5, ptr %0, align 8
  %6 = getelementptr inbounds i8, ptr %1, i64 8
  %7 = load i64, ptr %6, align 8
  store i64 %7, ptr %.sroa.2.0..sroa_idx.i.i, align 8
  %8 = getelementptr inbounds i8, ptr %1, i64 16
  tail call void @llvm.memset.p0.i64(ptr noundef nonnull align 8 dereferenceable(16) %1, i8 0, i64 16, i1 false)
  %.sroa.0.0.copyload.i4.i = load ptr, ptr %3, align 8
  %.sroa.2.0..sroa_idx.i5.i = getelementptr inbounds i8, ptr %0, i64 24
  %.sroa.2.0.copyload.i6.i = load i64, ptr %.sroa.2.0..sroa_idx.i5.i, align 8
  %9 = load ptr, ptr %8, align 8
  store ptr %9, ptr %3, align 8
  %10 = getelementptr inbounds i8, ptr %1, i64 24
  %11 = load i64, ptr %10, align 8
  store i64 %11, ptr %.sroa.2.0..sroa_idx.i5.i, align 8
  store ptr %.sroa.0.0.copyload.i4.i, ptr %8, align 8
  store i64 %.sroa.2.0.copyload.i6.i, ptr %10, align 8
  %12 = getelementptr inbounds i8, ptr %1, i64 32
  %.sroa.0.0.copyload.i7.i = load ptr, ptr %4, align 8
  %.sroa.2.0..sroa_idx.i8.i = getelementptr inbounds i8, ptr %0, i64 40
  %.sroa.2.0.copyload.i9.i = load i64, ptr %.sroa.2.0..sroa_idx.i8.i, align 8
  %13 = load ptr, ptr %12, align 8
  store ptr %13, ptr %4, align 8
  %14 = getelementptr inbounds i8, ptr %1, i64 40
  %15 = load i64, ptr %14, align 8
  store i64 %15, ptr %.sroa.2.0..sroa_idx.i8.i, align 8
  store ptr %.sroa.0.0.copyload.i7.i, ptr %12, align 8
  store i64 %.sroa.2.0.copyload.i9.i, ptr %14, align 8
  ret void
}